; Function Attrs: mustprogress nofree norecurse nounwind memory(argmem: readwrite) uwtable
define noundef zeroext i1 @_ZN5folly6fibers9Semaphore8try_waitEv(ptr noundef nonnull align 8 captures(none) dereferenceable(40) %0) local_unnamed_addr #10 align 2 {
  %2 = getelementptr inbounds nuw i8, ptr %0, i64 8
  %3 = load atomic i64, ptr %2 acquire, align 8
  %.not = icmp eq i64 %3, 0
  br i1 %.not, label %_ZNSt13__atomic_baseIlE21compare_exchange_weakERllSt12memory_orderS2_.exit.thread, label %.lr.ph

.lr.ph:                                           ; preds = %1, %.lr.ph
  %.05 = phi i64 [ %7, %.lr.ph ], [ %3, %1 ]
  %4 = add nsw i64 %.05, -1
  %5 = cmpxchg weak ptr %2, i64 %.05, i64 %4 release acquire, align 8
  %6 = extractvalue { i64, i1 } %5, 1
  %7 = extractvalue { i64, i1 } %5, 0
  %.not8 = icmp eq i64 %7, 0
  %or.cond = select i1 %6, i1 true, i1 %.not8
  br i1 %or.cond, label %_ZNSt13__atomic_baseIlE21compare_exchange_weakERllSt12memory_orderS2_.exit.thread, label %.lr.ph

_ZNSt13__atomic_baseIlE21compare_exchange_weakERllSt12memory_orderS2_.exit.thread: ; preds = %.lr.ph, %1
  %.lcssa = phi i1 [ false, %1 ], [ %6, %.lr.ph ]
  ret i1 %.lcssa
}